; Function Attrs: mustprogress nounwind uwtable
define internal fastcc void @_ZN9grpc_core12_GLOBAL__N_15RlsLb5CacheD2Ev(ptr noundef nonnull align 8 dereferenceable(128) %this) unnamed_addr #11 align 2 personality ptr @__gxx_personality_v0 {
entry:
  %map_ = getelementptr inbounds i8, ptr %this, i64 48
  tail call fastcc void @_ZNSt13unordered_mapIN9grpc_core12_GLOBAL__N_15RlsLb10RequestKeyESt10unique_ptrINS2_5Cache5EntryENS0_16OrphanableDeleteEEN4absl12lts_2023080213hash_internal4HashIS3_EESt8equal_toIS3_ESaISt4pairIKS3_S8_EEED2Ev(ptr noundef nonnull align 8 dereferenceable(56) %map_) #31
  %lru_list_ = getelementptr inbounds i8, ptr %this, i64 24
  %0 = load ptr, ptr %lru_list_, align 8
  %cmp.not4.i.i.i = icmp eq ptr %0, %lru_list_
  br i1 %cmp.not4.i.i.i, label %_ZNSt7__cxx114listIN9grpc_core12_GLOBAL__N_15RlsLb10RequestKeyESaIS4_EED2Ev.exit, label %while.body.i.i.i

while.body.i.i.i:                                 ; preds = %entry, %_ZNSt16allocator_traitsISaISt10_List_nodeIN9grpc_core12_GLOBAL__N_15RlsLb10RequestKeyEEEE7destroyIS4_EEvRS6_PT_.exit.i.i.i
  %__cur.05.i.i.i = phi ptr [ %1, %_ZNSt16allocator_traitsISaISt10_List_nodeIN9grpc_core12_GLOBAL__N_15RlsLb10RequestKeyEEEE7destroyIS4_EEvRS6_PT_.exit.i.i.i ], [ %0, %entry ]
  %1 = load ptr, ptr %__cur.05.i.i.i, align 8
  %_M_storage.i.i.i.i = getelementptr inbounds i8, ptr %__cur.05.i.i.i, i64 16
  %_M_parent.i.i.i.i.i.i.i.i.i.i = getelementptr inbounds i8, ptr %__cur.05.i.i.i, i64 32
  %2 = load ptr, ptr %_M_parent.i.i.i.i.i.i.i.i.i.i, align 8
  invoke void @_ZNSt8_Rb_treeINSt7__cxx1112basic_stringIcSt11char_traitsIcESaIcEEESt4pairIKS5_S5_ESt10_Select1stIS8_ESt4lessIS5_ESaIS8_EE8_M_eraseEPSt13_Rb_tree_nodeIS8_E(ptr noundef nonnull align 8 dereferenceable(48) %_M_storage.i.i.i.i, ptr noundef %2)
          to label %_ZNSt16allocator_traitsISaISt10_List_nodeIN9grpc_core12_GLOBAL__N_15RlsLb10RequestKeyEEEE7destroyIS4_EEvRS6_PT_.exit.i.i.i unwind label %terminate.lpad.i.i.i.i.i.i.i.i

terminate.lpad.i.i.i.i.i.i.i.i:                   ; preds = %while.body.i.i.i
  %3 = landingpad { ptr, i32 }
          catch ptr null
  %4 = extractvalue { ptr, i32 } %3, 0
  tail call void @__clang_call_terminate(ptr %4) #34
  unreachable

_ZNSt16allocator_traitsISaISt10_List_nodeIN9grpc_core12_GLOBAL__N_15RlsLb10RequestKeyEEEE7destroyIS4_EEvRS6_PT_.exit.i.i.i: ; preds = %while.body.i.i.i
  tail call void @_ZdlPv(ptr noundef nonnull %__cur.05.i.i.i) #33
  %cmp.not.i.i.i = icmp eq ptr %1, %lru_list_
  br i1 %cmp.not.i.i.i, label %_ZNSt7__cxx114listIN9grpc_core12_GLOBAL__N_15RlsLb10RequestKeyESaIS4_EED2Ev.exit, label %while.body.i.i.i, !llvm.loop !89

_ZNSt7__cxx114listIN9grpc_core12_GLOBAL__N_15RlsLb10RequestKeyESaIS4_EED2Ev.exit: ; preds = %_ZNSt16allocator_traitsISaISt10_List_nodeIN9grpc_core12_GLOBAL__N_15RlsLb10RequestKeyEEEE7destroyIS4_EEvRS6_PT_.exit.i.i.i, %entry
  ret void
}